target datalayout = "e-m:e-p270:32:32-p271:32:32-p272:64:64-i64:64-i128:128-f80:128-n8:16:32:64-S128"
target triple = "x86_64-unknown-linux-gnu"

%class.params_ref = type { ptr }
%class.symbol = type { ptr }

; Function Attrs: mustprogress uwtable
define hidden ptr @_ZNK10params_ref7get_symEPKcRK6symbol(ptr noundef nonnull align 8 dereferenceable(8) %this, ptr noundef %k, ptr noundef nonnull align 8 dereferenceable(8) %_default) #5 align 2 {
entry:
  %retval = alloca %class.symbol, align 8
  %this.addr = alloca ptr, align 8
  %k.addr = alloca ptr, align 8
  %_default.addr = alloca ptr, align 8
  store ptr %this, ptr %this.addr, align 8
  store ptr %k, ptr %k.addr, align 8
  store ptr %_default, ptr %_default.addr, align 8
  %this1 = load ptr, ptr %this.addr, align 8
  %m_params = getelementptr inbounds %class.params_ref, ptr %this1, i32 0, i32 0
  %0 = load ptr, ptr %m_params, align 8
  %tobool = icmp ne ptr %0, null
  br i1 %tobool, label %cond.true, label %cond.false

cond.true:                                        ; preds = %entry
  %m_params2 = getelementptr inbounds %class.params_ref, ptr %this1, i32 0, i32 0
  %1 = load ptr, ptr %m_params2, align 8
  %2 = load ptr, ptr %k.addr, align 8
  %3 = load ptr, ptr %_default.addr, align 8
  %call = call ptr @_ZNK6params7get_symEPKcRK6symbol(ptr noundef nonnull align 8 dereferenceable(12) %1, ptr noundef %2, ptr noundef nonnull align 8 dereferenceable(8) %3)
  %coerce.dive = getelementptr inbounds %class.symbol, ptr %retval, i32 0, i32 0
  store ptr %call, ptr %coerce.dive, align 8
  br label %cond.end

cond.false:                                       ; preds = %entry
  %4 = load ptr, ptr %_default.addr, align 8
  call void @llvm.memcpy.p0.p0.i64(ptr align 8 %retval, ptr align 8 %4, i64 8, i1 false)
  br label %cond.end

cond.end:                                         ; preds = %cond.false, %cond.true
  %coerce.dive3 = getelementptr inbounds %class.symbol, ptr %retval, i32 0, i32 0
  %5 = load ptr, ptr %coerce.dive3, align 8
  ret ptr %5
}

; Function Attrs: mustprogress uwtable
define hidden ptr @_ZNK10params_ref7get_symEPKcRKS_RK6symbol(ptr noundef nonnull align 8 dereferenceable(8) %this, ptr noundef %k, ptr noundef nonnull align 8 dereferenceable(8) %fallback, ptr noundef nonnull align 8 dereferenceable(8) %_default) #5 align 2 {
entry:
  %retval = alloca %class.symbol, align 8
  %this.addr = alloca ptr, align 8
  %k.addr = alloca ptr, align 8
  %fallback.addr = alloca ptr, align 8
  %_default.addr = alloca ptr, align 8
  store ptr %this, ptr %this.addr, align 8
  store ptr %k, ptr %k.addr, align 8
  store ptr %fallback, ptr %fallback.addr, align 8
  store ptr %_default, ptr %_default.addr, align 8
  %this1 = load ptr, ptr %this.addr, align 8
  %m_params = getelementptr inbounds %class.params_ref, ptr %this1, i32 0, i32 0
  %0 = load ptr, ptr %m_params, align 8
  %tobool = icmp ne ptr %0, null
  br i1 %tobool, label %cond.true, label %cond.false

cond.true:                                        ; preds = %entry
  %m_params2 = getelementptr inbounds %class.params_ref, ptr %this1, i32 0, i32 0
  %1 = load ptr, ptr %m_params2, align 8
  %2 = load ptr, ptr %k.addr, align 8
  %3 = load ptr, ptr %fallback.addr, align 8
  %4 = load ptr, ptr %_default.addr, align 8
  %call = call ptr @_ZNK6params7get_symEPKcRK10params_refRK6symbol(ptr noundef nonnull align 8 dereferenceable(12) %1, ptr noundef %2, ptr noundef nonnull align 8 dereferenceable(8) %3, ptr noundef nonnull align 8 dereferenceable(8) %4)
  %coerce.dive = getelementptr inbounds %class.symbol, ptr %retval, i32 0, i32 0
  store ptr %call, ptr %coerce.dive, align 8
  br label %cond.end

cond.false:                                       ; preds = %entry
  %5 = load ptr, ptr %fallback.addr, align 8
  %6 = load ptr, ptr %k.addr, align 8
  %7 = load ptr, ptr %_default.addr, align 8
  %call3 = call ptr @_ZNK10params_ref7get_symEPKcRK6symbol(ptr noundef nonnull align 8 dereferenceable(8) %5, ptr noundef %6, ptr noundef nonnull align 8 dereferenceable(8) %7)
  %coerce.dive4 = getelementptr inbounds %class.symbol, ptr %retval, i32 0, i32 0
  store ptr %call3, ptr %coerce.dive4, align 8
  br label %cond.end

cond.end:                                         ; preds = %cond.false, %cond.true
  %coerce.dive5 = getelementptr inbounds %class.symbol, ptr %retval, i32 0, i32 0
  %8 = load ptr, ptr %coerce.dive5, align 8
  ret ptr %8
}